; Function Attrs: nounwind uwtable
define internal i32 @evthread_posix_lock(i32 noundef %0, ptr noundef %1) #0 {
  %3 = and i32 %0, 16
  %.not = icmp eq i32 %3, 0
  br i1 %.not, label %6, label %4

4:                                                ; preds = %2
  %5 = tail call i32 @pthread_mutex_trylock(ptr noundef %1) #8
  br label %8

6:                                                ; preds = %2
  %7 = tail call i32 @pthread_mutex_lock(ptr noundef %1) #8
  br label %8

8:                                                ; preds = %6, %4
  %.0 = phi i32 [ %5, %4 ], [ %7, %6 ]
  ret i32 %.0
}